target datalayout = "e-m:e-p270:32:32-p271:32:32-p272:64:64-i64:64-i128:128-f80:128-n8:16:32:64-S128"
target triple = "x86_64-pc-linux-gnu"

%struct.FxuHeapDouble = type { ptr, i32, i32, i32 }
%struct.FxuDouble = type { i32, i32, i32, i32, %struct.FxuListPair, ptr, ptr, ptr }
%struct.FxuListPair = type { ptr, ptr, i32 }

@.str = private unnamed_addr constant [27 x i8] c"The contents of the heap:\0A\00", align 1
@.str.1 = private unnamed_addr constant [12 x i8] c"Level %d:  \00", align 1
@.str.2 = private unnamed_addr constant [10 x i8] c"%2d=%3d  \00", align 1
@.str.3 = private unnamed_addr constant [2 x i8] c"\0A\00", align 1
@.str.4 = private unnamed_addr constant [27 x i8] c"End of the heap printout.\0A\00", align 1

; Function Attrs: nounwind uwtable
define void @Fxu_HeapDoubleCheckOne(ptr noundef %0, ptr noundef %1) #0 {
  %3 = alloca ptr, align 8
  %4 = alloca ptr, align 8
  %5 = alloca i32, align 4
  %6 = alloca i32, align 4
  store ptr %0, ptr %3, align 8, !tbaa !3
  store ptr %1, ptr %4, align 8, !tbaa !14
  call void @llvm.lifetime.start.p0(i64 4, ptr %5) #6
  call void @llvm.lifetime.start.p0(i64 4, ptr %6) #6
  %7 = load ptr, ptr %4, align 8, !tbaa !14
  %8 = getelementptr inbounds nuw %struct.FxuDouble, ptr %7, i32 0, i32 1
  %9 = load i32, ptr %8, align 4, !tbaa !27
  %10 = shl i32 %9, 1
  %11 = load ptr, ptr %3, align 8, !tbaa !3
  %12 = getelementptr inbounds nuw %struct.FxuHeapDouble, ptr %11, i32 0, i32 1
  %13 = load i32, ptr %12, align 8, !tbaa !8
  %14 = icmp sle i32 %10, %13
  br i1 %14, label %15, label %31

15:                                               ; preds = %2
  %16 = load ptr, ptr %4, align 8, !tbaa !14
  %17 = getelementptr inbounds nuw %struct.FxuDouble, ptr %16, i32 0, i32 2
  %18 = load i32, ptr %17, align 8, !tbaa !20
  store i32 %18, ptr %5, align 4, !tbaa !18
  %19 = load ptr, ptr %3, align 8, !tbaa !3
  %20 = getelementptr inbounds nuw %struct.FxuHeapDouble, ptr %19, i32 0, i32 0
  %21 = load ptr, ptr %20, align 8, !tbaa !13
  %22 = load ptr, ptr %4, align 8, !tbaa !14
  %23 = getelementptr inbounds nuw %struct.FxuDouble, ptr %22, i32 0, i32 1
  %24 = load i32, ptr %23, align 4, !tbaa !27
  %25 = shl i32 %24, 1
  %26 = sext i32 %25 to i64
  %27 = getelementptr inbounds ptr, ptr %21, i64 %26
  %28 = load ptr, ptr %27, align 8, !tbaa !14
  %29 = getelementptr inbounds nuw %struct.FxuDouble, ptr %28, i32 0, i32 2
  %30 = load i32, ptr %29, align 8, !tbaa !20
  store i32 %30, ptr %6, align 4, !tbaa !18
  br label %31

31:                                               ; preds = %15, %2
  %32 = load ptr, ptr %4, align 8, !tbaa !14
  %33 = getelementptr inbounds nuw %struct.FxuDouble, ptr %32, i32 0, i32 1
  %34 = load i32, ptr %33, align 4, !tbaa !27
  %35 = shl i32 %34, 1
  %36 = add nsw i32 %35, 1
  %37 = load ptr, ptr %3, align 8, !tbaa !3
  %38 = getelementptr inbounds nuw %struct.FxuHeapDouble, ptr %37, i32 0, i32 1
  %39 = load i32, ptr %38, align 8, !tbaa !8
  %40 = icmp sle i32 %36, %39
  br i1 %40, label %41, label %58

41:                                               ; preds = %31
  %42 = load ptr, ptr %4, align 8, !tbaa !14
  %43 = getelementptr inbounds nuw %struct.FxuDouble, ptr %42, i32 0, i32 2
  %44 = load i32, ptr %43, align 8, !tbaa !20
  store i32 %44, ptr %5, align 4, !tbaa !18
  %45 = load ptr, ptr %3, align 8, !tbaa !3
  %46 = getelementptr inbounds nuw %struct.FxuHeapDouble, ptr %45, i32 0, i32 0
  %47 = load ptr, ptr %46, align 8, !tbaa !13
  %48 = load ptr, ptr %4, align 8, !tbaa !14
  %49 = getelementptr inbounds nuw %struct.FxuDouble, ptr %48, i32 0, i32 1
  %50 = load i32, ptr %49, align 4, !tbaa !27
  %51 = shl i32 %50, 1
  %52 = add nsw i32 %51, 1
  %53 = sext i32 %52 to i64
  %54 = getelementptr inbounds ptr, ptr %47, i64 %53
  %55 = load ptr, ptr %54, align 8, !tbaa !14
  %56 = getelementptr inbounds nuw %struct.FxuDouble, ptr %55, i32 0, i32 2
  %57 = load i32, ptr %56, align 8, !tbaa !20
  store i32 %57, ptr %6, align 4, !tbaa !18
  br label %58

58:                                               ; preds = %41, %31
  call void @llvm.lifetime.end.p0(i64 4, ptr %6) #6
  call void @llvm.lifetime.end.p0(i64 4, ptr %5) #6
  ret void
}

; Function Attrs: nounwind uwtable
define void @Fxu_HeapDoubleCheck(ptr noundef %0) #0 {
  %2 = alloca ptr, align 8
  %3 = alloca ptr, align 8
  store ptr %0, ptr %2, align 8, !tbaa !3
  call void @llvm.lifetime.start.p0(i64 8, ptr %3) #6
  %4 = load ptr, ptr %2, align 8, !tbaa !3
  %5 = getelementptr inbounds nuw %struct.FxuHeapDouble, ptr %4, i32 0, i32 3
  store i32 1, ptr %5, align 8, !tbaa !19
  br label %6

6:                                                ; preds = %30, %1
  %7 = load ptr, ptr %2, align 8, !tbaa !3
  %8 = getelementptr inbounds nuw %struct.FxuHeapDouble, ptr %7, i32 0, i32 3
  %9 = load i32, ptr %8, align 8, !tbaa !19
  %10 = load ptr, ptr %2, align 8, !tbaa !3
  %11 = getelementptr inbounds nuw %struct.FxuHeapDouble, ptr %10, i32 0, i32 1
  %12 = load i32, ptr %11, align 8, !tbaa !8
  %13 = icmp sle i32 %9, %12
  br i1 %13, label %14, label %25

14:                                               ; preds = %6
  %15 = load ptr, ptr %2, align 8, !tbaa !3
  %16 = getelementptr inbounds nuw %struct.FxuHeapDouble, ptr %15, i32 0, i32 0
  %17 = load ptr, ptr %16, align 8, !tbaa !13
  %18 = load ptr, ptr %2, align 8, !tbaa !3
  %19 = getelementptr inbounds nuw %struct.FxuHeapDouble, ptr %18, i32 0, i32 3
  %20 = load i32, ptr %19, align 8, !tbaa !19
  %21 = sext i32 %20 to i64
  %22 = getelementptr inbounds ptr, ptr %17, i64 %21
  %23 = load ptr, ptr %22, align 8, !tbaa !14
  store ptr %23, ptr %3, align 8, !tbaa !14
  %24 = icmp ne ptr %23, null
  br label %25

25:                                               ; preds = %14, %6
  %26 = phi i1 [ false, %6 ], [ %24, %14 ]
  br i1 %26, label %27, label %35

27:                                               ; preds = %25
  %28 = load ptr, ptr %2, align 8, !tbaa !3
  %29 = load ptr, ptr %3, align 8, !tbaa !14
  call void @Fxu_HeapDoubleCheckOne(ptr noundef %28, ptr noundef %29)
  br label %30

30:                                               ; preds = %27
  %31 = load ptr, ptr %2, align 8, !tbaa !3
  %32 = getelementptr inbounds nuw %struct.FxuHeapDouble, ptr %31, i32 0, i32 3
  %33 = load i32, ptr %32, align 8, !tbaa !19
  %34 = add nsw i32 %33, 1
  store i32 %34, ptr %32, align 8, !tbaa !19
  br label %6, !llvm.loop !26

35:                                               ; preds = %25
  call void @llvm.lifetime.end.p0(i64 8, ptr %3) #6
  ret void
}

; Function Attrs: nounwind uwtable
define void @Fxu_HeapDoublePrint(ptr noundef %0, ptr noundef %1) #0 {
  %3 = alloca ptr, align 8
  %4 = alloca ptr, align 8
  %5 = alloca ptr, align 8
  %6 = alloca i32, align 4
  %7 = alloca i32, align 4
  store ptr %0, ptr %3, align 8, !tbaa !16
  store ptr %1, ptr %4, align 8, !tbaa !3
  call void @llvm.lifetime.start.p0(i64 8, ptr %5) #6
  call void @llvm.lifetime.start.p0(i64 4, ptr %6) #6
  store i32 1, ptr %6, align 4, !tbaa !18
  call void @llvm.lifetime.start.p0(i64 4, ptr %7) #6
  store i32 1, ptr %7, align 4, !tbaa !18
  %8 = load ptr, ptr %4, align 8, !tbaa !3
  call void @Fxu_HeapDoubleCheck(ptr noundef %8)
  %9 = load ptr, ptr %3, align 8, !tbaa !16
  %10 = call i32 (ptr, ptr, ...) @fprintf(ptr noundef %9, ptr noundef @.str) #6
  %11 = load ptr, ptr %3, align 8, !tbaa !16
  %12 = load i32, ptr %7, align 4, !tbaa !18
  %13 = call i32 (ptr, ptr, ...) @fprintf(ptr noundef %11, ptr noundef @.str.1, i32 noundef %12) #6
  %14 = load ptr, ptr %4, align 8, !tbaa !3
  %15 = getelementptr inbounds nuw %struct.FxuHeapDouble, ptr %14, i32 0, i32 3
  store i32 1, ptr %15, align 8, !tbaa !19
  br label %16

16:                                               ; preds = %64, %2
  %17 = load ptr, ptr %4, align 8, !tbaa !3
  %18 = getelementptr inbounds nuw %struct.FxuHeapDouble, ptr %17, i32 0, i32 3
  %19 = load i32, ptr %18, align 8, !tbaa !19
  %20 = load ptr, ptr %4, align 8, !tbaa !3
  %21 = getelementptr inbounds nuw %struct.FxuHeapDouble, ptr %20, i32 0, i32 1
  %22 = load i32, ptr %21, align 8, !tbaa !8
  %23 = icmp sle i32 %19, %22
  br i1 %23, label %24, label %35

24:                                               ; preds = %16
  %25 = load ptr, ptr %4, align 8, !tbaa !3
  %26 = getelementptr inbounds nuw %struct.FxuHeapDouble, ptr %25, i32 0, i32 0
  %27 = load ptr, ptr %26, align 8, !tbaa !13
  %28 = load ptr, ptr %4, align 8, !tbaa !3
  %29 = getelementptr inbounds nuw %struct.FxuHeapDouble, ptr %28, i32 0, i32 3
  %30 = load i32, ptr %29, align 8, !tbaa !19
  %31 = sext i32 %30 to i64
  %32 = getelementptr inbounds ptr, ptr %27, i64 %31
  %33 = load ptr, ptr %32, align 8, !tbaa !14
  store ptr %33, ptr %5, align 8, !tbaa !14
  %34 = icmp ne ptr %33, null
  br label %35

35:                                               ; preds = %24, %16
  %36 = phi i1 [ false, %16 ], [ %34, %24 ]
  br i1 %36, label %37, label %69

37:                                               ; preds = %35
  %38 = load ptr, ptr %3, align 8, !tbaa !16
  %39 = load i32, ptr %6, align 4, !tbaa !18
  %40 = load ptr, ptr %4, align 8, !tbaa !3
  %41 = getelementptr inbounds nuw %struct.FxuHeapDouble, ptr %40, i32 0, i32 0
  %42 = load ptr, ptr %41, align 8, !tbaa !13
  %43 = load i32, ptr %6, align 4, !tbaa !18
  %44 = sext i32 %43 to i64
  %45 = getelementptr inbounds ptr, ptr %42, i64 %44
  %46 = load ptr, ptr %45, align 8, !tbaa !14
  %47 = getelementptr inbounds nuw %struct.FxuDouble, ptr %46, i32 0, i32 2
  %48 = load i32, ptr %47, align 8, !tbaa !20
  %49 = call i32 (ptr, ptr, ...) @fprintf(ptr noundef %38, ptr noundef @.str.2, i32 noundef %39, i32 noundef %48) #6
  %50 = load i32, ptr %6, align 4, !tbaa !18
  %51 = add nsw i32 %50, 1
  store i32 %51, ptr %6, align 4, !tbaa !18
  %52 = load i32, ptr %7, align 4, !tbaa !18
  %53 = shl i32 1, %52
  %54 = icmp eq i32 %51, %53
  br i1 %54, label %55, label %63

55:                                               ; preds = %37
  %56 = load ptr, ptr %3, align 8, !tbaa !16
  %57 = call i32 (ptr, ptr, ...) @fprintf(ptr noundef %56, ptr noundef @.str.3) #6
  %58 = load i32, ptr %7, align 4, !tbaa !18
  %59 = add nsw i32 %58, 1
  store i32 %59, ptr %7, align 4, !tbaa !18
  %60 = load ptr, ptr %3, align 8, !tbaa !16
  %61 = load i32, ptr %7, align 4, !tbaa !18
  %62 = call i32 (ptr, ptr, ...) @fprintf(ptr noundef %60, ptr noundef @.str.1, i32 noundef %61) #6
  br label %63

63:                                               ; preds = %55, %37
  br label %64

64:                                               ; preds = %63
  %65 = load ptr, ptr %4, align 8, !tbaa !3
  %66 = getelementptr inbounds nuw %struct.FxuHeapDouble, ptr %65, i32 0, i32 3
  %67 = load i32, ptr %66, align 8, !tbaa !19
  %68 = add nsw i32 %67, 1
  store i32 %68, ptr %66, align 8, !tbaa !19
  br label %16, !llvm.loop !24

69:                                               ; preds = %35
  %70 = load ptr, ptr %3, align 8, !tbaa !16
  %71 = call i32 (ptr, ptr, ...) @fprintf(ptr noundef %70, ptr noundef @.str.3) #6
  %72 = load ptr, ptr %3, align 8, !tbaa !16
  %73 = call i32 (ptr, ptr, ...) @fprintf(ptr noundef %72, ptr noundef @.str.4) #6
  call void @llvm.lifetime.end.p0(i64 4, ptr %7) #6
  call void @llvm.lifetime.end.p0(i64 4, ptr %6) #6
  call void @llvm.lifetime.end.p0(i64 8, ptr %5) #6
  ret void
}